ccopy_reg
_reconstructor
p1
(csklearn.linear_model.logistic
LogisticRegression
p2
c__builtin__
object
p3
NtRp4
(dp5
S'warm_start'
p6
I00
sS'C'
F1
sS'classes_'
p7
cnumpy.core.multiarray
_reconstruct
p8
(cnumpy
ndarray
p9
(I0
tS'b'
tRp10
(I1
(L2L
tcnumpy
dtype
p11
(S'f8'
I0
I1
tRp12
(I3
S'<'
NNNI-1
I-1
I0
tbI00
S'\x00\x00\x00\x00\x00\x00\x00\x00\x00\x00\x00\x00\x00\x00\xf0?'
tbsS'n_jobs'
p13
I1
sS'verbose'
p14
I0
sS'fit_intercept'
p15
I01
sS'max_iter'
p16
I100
sS'n_iter_'
p17
g8
(g9
(I0
tS'b'
tRp18
(I1
(L1L
tg11
(S'i4'
I0
I1
tRp19
(I3
S'<'
NNNI-1
I-1
I0
tbI00
S'\n\x00\x00\x00'
tbsS'intercept_'
p20
g8
(g9
(I0
tS'b'
tRp21
(I1
(L1L
tg12
I00
S'\x1e\xfa\xdfy\xbb\x0b\xed\xbf'
tbsS'penalty'
p22
S'l2'
p23
sS'multi_class'
p24
S'ovr'
p25
sS'random_state'
p26
NsS'_sklearn_version'
p27
S'0.18.1'
p28
sS'class_weight'
p29
NsS'dual'
p30
I00
sS'tol'
p31
F0.0001
sS'coef_'
p32
g8
(g9
(I0
tS'b'
tRp33
(I1
(L1L
L3L
tg12
I01
S'\xef\xf2\x92\x18Bg`\xbf\xd7\x08\x11\xb9\xb7\x1dc\xbf\x7f\x14\xcfW\x97L\xd1?'
tbsS'solver'
p34
S'liblinear'
p35
sS'intercept_scaling'
p36
I1
sb.